; Function Attrs: nounwind uwtable
define hidden void @zif_extension_loaded(ptr noundef readonly captures(none) %0, ptr noundef writeonly captures(none) %1) #0 {
  %3 = alloca ptr, align 8
  call void @llvm.lifetime.start.p0(i64 8, ptr nonnull %3) #14
  %4 = getelementptr inbounds nuw i8, ptr %0, i64 44
  %5 = load i32, ptr %4, align 4, !tbaa !28
  %6 = call i32 (i32, ptr, ...) @zend_parse_parameters(i32 noundef %5, ptr noundef nonnull @.str.47, ptr noundef nonnull %3) #14
  %7 = icmp eq i32 %6, -1
  br i1 %7, label %8, label %11

8:                                                ; preds = %2
  %9 = load ptr, ptr getelementptr inbounds nuw (i8, ptr @executor_globals, i64 960), align 8, !tbaa !67
  %10 = icmp ne ptr %9, null
  call void @llvm.assume(i1 %10)
  br label %zend_string_release_ex.exit

11:                                               ; preds = %2
  %12 = load ptr, ptr %3, align 8, !tbaa !60
  %13 = call ptr @zend_string_tolower_ex(ptr noundef %12, i1 noundef zeroext false) #14
  %14 = call ptr @zend_hash_find(ptr noundef nonnull @module_registry, ptr noundef %13) #14
  %.not = icmp eq ptr %14, null
  %spec.select = select i1 %.not, i32 2, i32 3
  %15 = getelementptr inbounds nuw i8, ptr %1, i64 8
  store i32 %spec.select, ptr %15, align 8, !tbaa !28
  %16 = getelementptr inbounds nuw i8, ptr %13, i64 4
  %17 = load i32, ptr %16, align 4, !tbaa !28
  %18 = and i32 %17, 64
  %.not.i = icmp eq i32 %18, 0
  br i1 %.not.i, label %19, label %zend_string_release_ex.exit

19:                                               ; preds = %11
  %20 = load i32, ptr %13, align 4, !tbaa !30
  %21 = icmp ne i32 %20, 0
  call void @llvm.assume(i1 %21)
  %22 = add i32 %20, -1
  store i32 %22, ptr %13, align 4, !tbaa !30
  %23 = icmp eq i32 %22, 0
  br i1 %23, label %24, label %zend_string_release_ex.exit

24:                                               ; preds = %19
  call void @_efree(ptr noundef nonnull %13) #14
  br label %zend_string_release_ex.exit

zend_string_release_ex.exit:                      ; preds = %24, %19, %11, %8
  call void @llvm.lifetime.end.p0(i64 8, ptr nonnull %3) #14
  ret void
}